target datalayout = "e-m:e-p270:32:32-p271:32:32-p272:64:64-i64:64-i128:128-f80:128-n8:16:32:64-S128"
target triple = "x86_64-pc-linux-gnu"

%struct.FxuCube = type { i32, ptr, ptr, %struct.FxuListLit, ptr, ptr, ptr }
%struct.FxuListLit = type { ptr, ptr, i32 }
%struct.FxuLit = type { i32, i32, ptr, ptr, ptr, ptr, ptr, ptr }

; Function Attrs: nounwind uwtable
define void @Fxu_PairCanonicize(ptr noundef %0, ptr noundef %1) #0 {
  %3 = alloca ptr, align 8
  %4 = alloca ptr, align 8
  %5 = alloca ptr, align 8
  %6 = alloca ptr, align 8
  %7 = alloca ptr, align 8
  store ptr %0, ptr %3, align 8, !tbaa !3
  store ptr %1, ptr %4, align 8, !tbaa !3
  call void @llvm.lifetime.start.p0(i64 8, ptr %5) #6
  call void @llvm.lifetime.start.p0(i64 8, ptr %6) #6
  call void @llvm.lifetime.start.p0(i64 8, ptr %7) #6
  %8 = load ptr, ptr %3, align 8, !tbaa !3
  %9 = load ptr, ptr %8, align 8, !tbaa !8
  %10 = getelementptr inbounds nuw %struct.FxuCube, ptr %9, i32 0, i32 3
  %11 = getelementptr inbounds nuw %struct.FxuListLit, ptr %10, i32 0, i32 0
  %12 = load ptr, ptr %11, align 8, !tbaa !10
  store ptr %12, ptr %5, align 8, !tbaa !16
  %13 = load ptr, ptr %4, align 8, !tbaa !3
  %14 = load ptr, ptr %13, align 8, !tbaa !8
  %15 = getelementptr inbounds nuw %struct.FxuCube, ptr %14, i32 0, i32 3
  %16 = getelementptr inbounds nuw %struct.FxuListLit, ptr %15, i32 0, i32 0
  %17 = load ptr, ptr %16, align 8, !tbaa !10
  store ptr %17, ptr %6, align 8, !tbaa !16
  br label %18

18:                                               ; preds = %27, %2
  br label %19

19:                                               ; preds = %18
  %20 = load ptr, ptr %5, align 8, !tbaa !16
  %21 = getelementptr inbounds nuw %struct.FxuLit, ptr %20, i32 0, i32 0
  %22 = load i32, ptr %21, align 8, !tbaa !17
  %23 = load ptr, ptr %6, align 8, !tbaa !16
  %24 = getelementptr inbounds nuw %struct.FxuLit, ptr %23, i32 0, i32 0
  %25 = load i32, ptr %24, align 8, !tbaa !17
  %26 = icmp eq i32 %22, %25
  br i1 %26, label %27, label %34

27:                                               ; preds = %19
  %28 = load ptr, ptr %5, align 8, !tbaa !16
  %29 = getelementptr inbounds nuw %struct.FxuLit, ptr %28, i32 0, i32 5
  %30 = load ptr, ptr %29, align 8, !tbaa !19
  store ptr %30, ptr %5, align 8, !tbaa !16
  %31 = load ptr, ptr %6, align 8, !tbaa !16
  %32 = getelementptr inbounds nuw %struct.FxuLit, ptr %31, i32 0, i32 5
  %33 = load ptr, ptr %32, align 8, !tbaa !19
  store ptr %33, ptr %6, align 8, !tbaa !16
  br label %18

34:                                               ; preds = %19
  %35 = load ptr, ptr %5, align 8, !tbaa !16
  %36 = getelementptr inbounds nuw %struct.FxuLit, ptr %35, i32 0, i32 0
  %37 = load i32, ptr %36, align 8, !tbaa !17
  %38 = load ptr, ptr %6, align 8, !tbaa !16
  %39 = getelementptr inbounds nuw %struct.FxuLit, ptr %38, i32 0, i32 0
  %40 = load i32, ptr %39, align 8, !tbaa !17
  %41 = icmp sgt i32 %37, %40
  br i1 %41, label %42, label %50

42:                                               ; preds = %34
  %43 = load ptr, ptr %3, align 8, !tbaa !3
  %44 = load ptr, ptr %43, align 8, !tbaa !8
  store ptr %44, ptr %7, align 8, !tbaa !8
  %45 = load ptr, ptr %4, align 8, !tbaa !3
  %46 = load ptr, ptr %45, align 8, !tbaa !8
  %47 = load ptr, ptr %3, align 8, !tbaa !3
  store ptr %46, ptr %47, align 8, !tbaa !8
  %48 = load ptr, ptr %7, align 8, !tbaa !8
  %49 = load ptr, ptr %4, align 8, !tbaa !3
  store ptr %48, ptr %49, align 8, !tbaa !8
  br label %50

50:                                               ; preds = %42, %34
  br label %51

51:                                               ; preds = %50
  call void @llvm.lifetime.end.p0(i64 8, ptr %7) #6
  call void @llvm.lifetime.end.p0(i64 8, ptr %6) #6
  call void @llvm.lifetime.end.p0(i64 8, ptr %5) #6
  ret void
}