; Function Attrs: nofree norecurse nosync nounwind memory(read, argmem: readwrite, inaccessiblemem: none) uwtable
define void @Fxu_PairCanonicize(ptr noundef captures(none) %0, ptr noundef captures(none) %1) local_unnamed_addr #0 {
  %3 = load ptr, ptr %0, align 8, !tbaa !3
  %4 = getelementptr inbounds nuw i8, ptr %3, i64 24
  %5 = load ptr, ptr %1, align 8, !tbaa !3
  %6 = getelementptr inbounds nuw i8, ptr %5, i64 24
  %.017 = load ptr, ptr %4, align 8, !tbaa !8
  %.01318 = load ptr, ptr %6, align 8, !tbaa !8
  %7 = load i32, ptr %.017, align 8, !tbaa !10
  %8 = load i32, ptr %.01318, align 8, !tbaa !10
  %9 = icmp eq i32 %7, %8
  br i1 %9, label %.lr.ph, label %._crit_edge

.lr.ph:                                           ; preds = %2, %.lr.ph
  %.01320 = phi ptr [ %.013, %.lr.ph ], [ %.01318, %2 ]
  %.019 = phi ptr [ %.0, %.lr.ph ], [ %.017, %2 ]
  %10 = getelementptr inbounds nuw i8, ptr %.019, i64 32
  %11 = getelementptr inbounds nuw i8, ptr %.01320, i64 32
  %.0 = load ptr, ptr %10, align 8, !tbaa !8
  %.013 = load ptr, ptr %11, align 8, !tbaa !8
  %12 = load i32, ptr %.0, align 8, !tbaa !10
  %13 = load i32, ptr %.013, align 8, !tbaa !10
  %14 = icmp eq i32 %12, %13
  br i1 %14, label %.lr.ph, label %._crit_edge

._crit_edge:                                      ; preds = %.lr.ph, %2
  %.lcssa16 = phi i32 [ %7, %2 ], [ %12, %.lr.ph ]
  %.lcssa = phi i32 [ %8, %2 ], [ %13, %.lr.ph ]
  %15 = icmp sgt i32 %.lcssa16, %.lcssa
  br i1 %15, label %16, label %17

16:                                               ; preds = %._crit_edge
  store ptr %5, ptr %0, align 8, !tbaa !3
  store ptr %3, ptr %1, align 8, !tbaa !3
  br label %17

17:                                               ; preds = %._crit_edge, %16
  ret void
}